Certificate:
    Data:
        Version: 3 (0x2)
        Serial Number: 1 (0x1)
        Signature Algorithm: sha256WithRSAEncryption
        Issuer: O=ICANN, OU=ICANN Certification Authority, CN=ICANN Root CA, C=US
        Validity
            Not Before: Dec 23 04:19:12 2009 GMT
            Not After : Dec 18 04:19:12 2029 GMT
        Subject: O=ICANN, OU=ICANN Certification Authority, CN=ICANN Root CA, C=US
        Subject Public Key Info:
            Public Key Algorithm: rsaEncryption
            RSA Public Key: (2048 bit)
                Modulus (2048 bit):
                    00:a0:db:70:b8:4f:34:da:9c:d4:d0:7e:bb:ea:15:
                    bc:e9:c9:11:2a:1f:61:2f:6a:b9:bd:3f:3d:76:a0:
                    9a:0a:f7:ee:93:6e:6e:55:53:84:8c:f2:2c:f1:82:
                    27:c8:0f:9a:cf:52:1b:54:da:28:d2:2c:30:8e:dd:
                    fb:92:20:33:2d:d6:c8:f1:0e:10:21:88:71:fa:84:
                    22:4b:5d:47:56:16:7c:9b:9f:5d:c3:11:79:9c:14:
                    e2:ff:c0:74:ac:dd:39:d7:e0:38:d8:b0:73:aa:fb:
                    d1:db:84:af:52:22:a8:f6:d5:9b:94:f4:e6:5d:5e:
                    e8:3f:87:90:0b:c7:1a:77:f5:2e:d3:8f:1a:ce:02:
                    1d:07:69:21:47:32:da:46:ae:00:4c:b6:a5:a2:9c:
                    39:c1:c0:4a:f6:d3:1c:ae:d3:6d:bb:c7:18:f0:7e:
                    ed:f6:80:ce:d0:01:2e:89:de:12:ba:ee:11:cb:a6:
                    7a:d7:0d:7c:f3:08:8d:72:9d:bf:55:75:13:70:bb:
                    31:22:4a:cb:e8:c0:aa:a4:09:aa:36:68:40:60:74:
                    9d:e7:19:81:43:22:52:fe:c9:2b:52:0f:41:13:36:
                    09:72:65:95:cc:89:ae:6f:56:17:16:34:73:52:a3:
                    04:ed:bd:88:82:8a:eb:d7:dc:82:52:9c:06:e1:52:
                    85:41
                Exponent: 65537 (0x10001)
        X509v3 extensions:
            X509v3 Basic Constraints: critical
                CA:TRUE
            X509v3 Key Usage: critical
                Digital Signature, Non Repudiation, Key Encipherment, Data Encipherment, Key Agreement, Certificate Sign, CRL Sign
            X509v3 Subject Key Identifier: 
                BA:52:E9:49:83:24:86:52:2F:C7:99:CD:FC:8D:6B:69:08:4D:C0:50
    Signature Algorithm: sha256WithRSAEncryption
        0f:f1:e9:82:a2:0a:87:9f:2d:94:60:5a:b2:c0:4b:a1:2f:2b:
        3b:47:d5:0a:99:86:38:b2:ec:c6:3b:89:e4:6e:07:cf:14:c7:
        c7:e8:cf:99:8f:aa:30:c3:19:70:b9:e6:6d:d6:3f:c8:68:26:
        b2:a0:a5:37:42:ca:d8:62:80:d1:a2:5a:48:2e:1f:85:3f:0c:
        7b:c2:c7:94:11:5f:19:2a:95:ac:a0:3a:03:d8:91:5b:2e:0d:
        9c:7c:1f:2e:fc:e9:44:e1:16:26:73:1c:45:4a:65:c1:83:4c:
        90:f3:f2:28:42:df:db:c4:e7:04:12:18:62:43:5e:bc:1f:6c:
        84:e6:bc:49:32:df:61:d7:99:ee:e4:90:52:7b:0a:c2:91:8a:
        98:62:66:b1:c8:e0:b7:5a:b5:46:7c:76:71:54:8e:cc:a4:81:
        5c:19:db:d2:6f:66:b5:bb:2b:ae:6b:c9:74:04:a8:24:de:e8:
        c5:d3:fc:2c:1c:d7:8f:db:6a:8d:c9:53:be:5d:50:73:ac:cf:
        1f:93:c0:52:50:5b:a2:4f:fe:ad:65:36:17:46:d1:2d:e5:a2:
        90:66:05:db:29:4e:5d:50:5d:e3:4f:da:a0:8f:f0:6b:e4:16:
        70:dd:7f:f3:77:7d:b9:4e:f9:ec:c3:33:02:d7:e9:63:2f:31:
        e7:40:61:a4
-----BEGIN CERTIFICATE-----
MIIDdzCCAl+gAwIBAgIBATANBgkqhkiG9w0BAQsFADBdMQ4wDAYDVQQKEwVJQ0FO
TjEmMCQGA1UECxMdSUNBTk4gQ2VydGlmaWNhdGlvbiBBdXRob3JpdHkxFjAUBgNV
BAMTDUlDQU5OIFJvb3QgQ0ExCzAJBgNVBAYTAlVTMB4XDTA5MTIyMzA0MTkxMloX
DTI5MTIxODA0MTkxMlowXTEOMAwGA1UEChMFSUNBTk4xJjAkBgNVBAsTHUlDQU5O
IENlcnRpZmljYXRpb24gQXV0aG9yaXR5MRYwFAYDVQQDEw1JQ0FOTiBSb290IENB
MQswCQYDVQQGEwJVUzCCASIwDQYJKoZIhvcNAQEBBQADggEPADCCAQoCggEBAKDb
cLhPNNqc1NB+u+oVvOnJESofYS9qub0/PXagmgr37pNublVThIzyLPGCJ8gPms9S
G1TaKNIsMI7d+5IgMy3WyPEOECGIcfqEIktdR1YWfJufXcMReZwU4v/AdKzdOdfg
ONiwc6r70duEr1IiqPbVm5T05l1e6D+HkAvHGnf1LtOPGs4CHQdpIUcy2kauAEy2
paKcOcHASvbTHK7TbbvHGPB+7faAztABLoneErruEcumetcNfPMIjXKdv1V1E3C7
MSJKy+jAqqQJqjZoQGB0necZgUMiUv7JK1IPQRM2CXJllcyJrm9WFxY0c1KjBO29
iIKK69fcglKcBuFShUECAwEAAaNCMEAwDwYDVR0TAQH/BAUwAwEB/zAOBgNVHQ8B
Af8EBAMCAf4wHQYDVR0OBBYEFLpS6UmDJIZSL8eZzfyNa2kITcBQMA0GCSqGSIb3
DQEBCwUAA4IBAQAP8emCogqHny2UYFqywEuhLys7R9UKmYY4suzGO4nkbgfPFMfH
6M+Zj6owwxlwueZt1j/IaCayoKU3QsrYYoDRolpILh+FPwx7wseUEV8ZKpWsoDoD
2JFbLg2cfB8u/OlE4RYmcxxFSmXBg0yQ8/IoQt/bxOcEEhhiQ168H2yE5rxJMt9h
15nu5JBSewrCkYqYYmaxyOC3WrVGfHZxVI7MpIFcGdvSb2a1uyuua8l0BKgk3ujF
0/wsHNeP22qNyVO+XVBzrM8fk8BSUFuiT/6tZTYXRtEt5aKQZgXbKU5dUF3jT9qg
j/Br5BZw3X/zd325TvnswzMC1+ljLzHnQGGk
-----END CERTIFICATE-----
Certificate:
    Data:
        Version: 3 (0x2)
        Serial Number: 11 (0xb)
        Signature Algorithm: sha256WithRSAEncryption
        Issuer: O=ICANN, OU=ICANN Certification Authority, CN=ICANN Root CA, C=US
        Validity
            Not Before: Nov  8 23:39:47 2016 GMT
            Not After : Nov  6 23:39:47 2026 GMT
        Subject: O=ICANN, CN=ICANN EMAIL CA
        Subject Public Key Info:
            Public Key Algorithm: rsaEncryption
            RSA Public Key: (2048 bit)
                Modulus (2048 bit):
                    00:d2:19:1e:22:69:33:f6:a4:d2:76:c5:80:11:75:
                    8e:d0:e8:6f:bf:89:f8:2a:6a:da:8a:85:28:40:ba:
                    c5:23:5f:47:ed:72:e2:8e:d3:5c:c8:8a:3a:99:a9:
                    57:2c:0a:2b:22:f3:54:7b:8b:f7:8c:21:a2:50:01:
                    4f:8b:af:34:df:72:fc:78:31:d0:1d:eb:bc:9b:e6:
                    fa:c1:84:d0:05:07:8a:74:53:a5:60:9e:eb:75:9e:
                    a8:5d:32:c8:02:32:e4:bf:cb:97:9b:7a:fa:2c:f6:
                    6a:1d:b8:57:ad:e3:03:22:93:d0:f4:4f:a8:b8:01:
                    db:82:33:98:b6:87:ed:3d:67:40:00:27:2e:d5:95:
                    d2:ad:36:46:14:c6:17:79:65:7f:65:f3:88:80:65:
                    7c:22:67:08:23:3c:cf:a5:10:38:72:30:97:92:6f:
                    20:4a:ba:24:4c:4a:c8:4a:a5:dc:2a:44:a1:29:78:
                    b4:9f:fe:84:ff:27:5b:3a:72:ea:31:c1:ad:06:22:
                    d6:44:a0:4a:57:32:9c:f2:46:47:d0:89:6e:20:23:
                    2c:ea:b0:83:7e:c1:f3:ea:da:dd:e3:63:59:97:21:
                    fa:1b:11:39:27:cf:82:8b:56:15:d4:36:92:0c:a5:
                    7e:80:e0:18:c9:50:08:42:0a:df:97:3c:9c:b8:0a:
                    4d:b1
                Exponent: 65537 (0x10001)
        X509v3 extensions:
            X509v3 Basic Constraints: critical
                CA:TRUE
            X509v3 Key Usage: critical
                Certificate Sign, CRL Sign
            X509v3 Authority Key Identifier: 
                keyid:BA:52:E9:49:83:24:86:52:2F:C7:99:CD:FC:8D:6B:69:08:4D:C0:50

            X509v3 Subject Key Identifier: 
                7B:3F:BA:CE:A1:B3:A6:13:2E:5A:82:84:D4:D2:EA:A5:24:F1:CD:B4
    Signature Algorithm: sha256WithRSAEncryption
        0e:8a:c9:ea:6f:9c:e9:23:b6:9c:a6:a4:c2:d1:b1:ee:25:18:
        24:2b:79:d4:a8:f2:99:b9:5c:91:4d:e6:2b:32:2e:01:f5:87:
        95:64:fc:6d:f1:87:fa:24:b4:43:4b:49:f3:84:54:44:eb:af:
        41:ab:49:ab:c8:b7:32:6c:14:83:5b:d7:2c:41:f9:89:d5:c4:
        2b:9a:55:c5:b6:ad:17:d5:4d:bc:41:58:56:72:0d:db:b7:7d:
        57:c6:a2:9c:7e:6b:67:ae:26:f8:26:45:bb:c4:95:2e:ea:71:
        e3:b4:7a:69:95:a4:8a:80:f8:59:dc:88:6e:e1:a7:fc:bb:8e:
        b2:aa:a8:b6:1b:2f:2c:97:a5:12:d5:82:ae:a0:e8:a6:15:fd:
        d1:e0:5d:e4:84:b1:76:db:0a:e2:ca:58:2e:d3:df:48:4e:46:
        ac:c6:35:79:17:99:ce:e9:be:2c:e4:c2:50:ff:5b:96:15:cd:
        64:ac:1b:db:fe:d2:ac:43:61:c8:5f:ee:24:b6:a4:3b:d2:ff:
        0a:f4:0c:88:58:a1:9d:a4:c1:1f:6a:6c:67:90:98:e8:1f:5e:
        2d:55:60:91:26:2a:b1:66:80:e4:e6:0e:05:2c:75:a9:ca:0b:
        e4:a0:8f:e1:47:a8:8f:61:5d:7c:ce:09:60:88:48:c3:46:bf:
        be:7e:36:be
-----BEGIN CERTIFICATE-----
MIIDZDCCAkygAwIBAgIBCzANBgkqhkiG9w0BAQsFADBdMQ4wDAYDVQQKEwVJQ0FO
TjEmMCQGA1UECxMdSUNBTk4gQ2VydGlmaWNhdGlvbiBBdXRob3JpdHkxFjAUBgNV
BAMTDUlDQU5OIFJvb3QgQ0ExCzAJBgNVBAYTAlVTMB4XDTE2MTEwODIzMzk0N1oX
DTI2MTEwNjIzMzk0N1owKTEOMAwGA1UEChMFSUNBTk4xFzAVBgNVBAMTDklDQU5O
IEVNQUlMIENBMIIBIjANBgkqhkiG9w0BAQEFAAOCAQ8AMIIBCgKCAQEA0hkeImkz
9qTSdsWAEXWO0Ohvv4n4KmraioUoQLrFI19H7XLijtNcyIo6malXLAorIvNUe4v3
jCGiUAFPi68033L8eDHQHeu8m+b6wYTQBQeKdFOlYJ7rdZ6oXTLIAjLkv8uXm3r6
LPZqHbhXreMDIpPQ9E+ouAHbgjOYtoftPWdAACcu1ZXSrTZGFMYXeWV/ZfOIgGV8
ImcIIzzPpRA4cjCXkm8gSrokTErISqXcKkShKXi0n/6E/ydbOnLqMcGtBiLWRKBK
VzKc8kZH0IluICMs6rCDfsHz6trd42NZlyH6GxE5J8+Ci1YV1DaSDKV+gOAYyVAI
QgrflzycuApNsQIDAQABo2MwYTAPBgNVHRMBAf8EBTADAQH/MA4GA1UdDwEB/wQE
AwIBBjAfBgNVHSMEGDAWgBS6UulJgySGUi/Hmc38jWtpCE3AUDAdBgNVHQ4EFgQU
ez+6zqGzphMuWoKE1NLqpSTxzbQwDQYJKoZIhvcNAQELBQADggEBAA6KyepvnOkj
tpympMLRse4lGCQredSo8pm5XJFN5isyLgH1h5Vk/G3xh/oktENLSfOEVETrr0Gr
SavItzJsFINb1yxB+YnVxCuaVcW2rRfVTbxBWFZyDdu3fVfGopx+a2euJvgmRbvE
lS7qceO0emmVpIqA+FnciG7hp/y7jrKqqLYbLyyXpRLVgq6g6KYV/dHgXeSEsXbb
CuLKWC7T30hORqzGNXkXmc7pvizkwlD/W5YVzWSsG9v+0qxDYchf7iS2pDvS/wr0
DIhYoZ2kwR9qbGeQmOgfXi1VYJEmKrFmgOTmDgUsdanKC+Sgj+FHqI9hXXzOCWCI
SMNGv75+Nr4=
-----END CERTIFICATE-----
Certificate:
    Data:
        Version: 3 (0x2)
        Serial Number: 10 (0xa)
        Signature Algorithm: sha256WithRSAEncryption
        Issuer: O=ICANN, OU=ICANN Certification Authority, CN=ICANN Root CA, C=US
        Validity
            Not Before: Nov  8 23:38:16 2016 GMT
            Not After : Nov  6 23:38:16 2026 GMT
        Subject: O=ICANN, CN=ICANN SSL CA
        Subject Public Key Info:
            Public Key Algorithm: rsaEncryption
            RSA Public Key: (2048 bit)
                Modulus (2048 bit):
                    00:dd:c6:ab:bf:7c:66:9d:b3:2b:96:00:14:c7:60:
                    7a:8d:62:5b:26:4b:30:d7:b3:4c:82:69:c6:4d:4d:
                    73:f3:d4:91:21:5d:ab:35:f0:c8:04:0e:f4:a3:35:
                    e2:e1:18:a9:98:12:03:58:f8:9f:eb:77:54:5b:89:
                    81:26:c9:aa:c2:f4:c9:0c:82:57:2a:5e:05:e9:61:
                    17:cc:19:18:71:eb:35:83:c1:86:9d:ec:f1:6b:ca:
                    dd:a1:96:0b:95:d4:e1:0f:9e:24:6f:dc:3c:d0:28:
                    9e:f2:53:47:2b:a1:ad:32:03:c8:3f:0d:80:80:7d:
                    f0:02:d2:6e:5a:2c:44:21:9b:09:50:15:3f:a1:3d:
                    d3:c9:c8:24:e7:ea:4e:92:2f:94:90:2e:de:e7:68:
                    f6:c6:b3:90:1f:bc:c9:7b:a2:65:d7:11:e9:8b:f0:
                    3a:5a:b7:17:07:df:69:e3:6e:b9:54:6a:8e:3a:aa:
                    94:7f:2c:0a:a1:ad:ba:b7:d9:60:62:27:a7:71:40:
                    3b:8e:b0:84:7b:b8:c8:67:ef:66:ba:3d:ac:c3:85:
                    e5:86:bb:a7:9c:fd:b6:e1:c0:10:53:3d:d4:7e:1b:
                    09:e6:9f:22:5c:a7:27:09:7e:27:12:33:fa:df:9b:
                    20:2f:14:f7:17:c0:e4:1e:07:91:1f:f9:9a:cd:a8:
                    e2:c5
                Exponent: 65537 (0x10001)
        X509v3 extensions:
            X509v3 Basic Constraints: critical
                CA:TRUE
            X509v3 Key Usage: critical
                Certificate Sign, CRL Sign
            X509v3 Authority Key Identifier: 
                keyid:BA:52:E9:49:83:24:86:52:2F:C7:99:CD:FC:8D:6B:69:08:4D:C0:50

            X509v3 Subject Key Identifier: 
                6E:77:A8:40:10:4A:D8:9C:0C:F2:B7:5A:3A:A5:2F:79:4A:61:14:D8
    Signature Algorithm: sha256WithRSAEncryption
        47:46:4f:c7:5f:46:e3:d1:dc:fc:2b:f8:fc:65:ce:36:b1:f4:
        5f:ee:14:75:a3:d9:5f:de:75:4b:fa:7b:88:9f:10:8c:2e:97:
        cc:35:1b:ce:24:d3:36:60:95:d5:ae:11:b6:3f:8b:f4:12:69:
        85:b5:3b:2a:b6:ab:7a:81:85:c2:55:57:ed:d0:b5:e7:4f:54:
        37:51:24:c9:d5:07:3a:ef:b6:c5:1a:3e:14:29:a7:a6:f8:08:
        2a:0b:26:79:f9:62:85:4a:e5:ea:90:ca:71:38:16:91:4e:7e:
        fd:e3:b3:f3:55:8f:5a:d0:86:cf:33:94:88:f1:90:99:cb:81:
        e2:81:92:68:2f:c3:61:d5:52:8d:e6:9a:5b:00:83:42:27:88:
        f6:d9:fa:d1:bc:bb:b0:bc:b5:14:0b:4e:1a:54:ef:fa:d6:9d:
        c4:0c:fc:ed:15:ab:21:4b:45:b5:d9:3b:ed:3c:d5:1e:2e:7a:
        83:6f:24:45:d4:4c:b4:ef:60:43:18:d0:84:5d:16:7b:f5:50:
        80:b1:a9:c2:8f:3b:c8:90:08:fd:aa:17:13:19:38:19:d1:8e:
        85:7c:1e:57:16:8c:f9:8a:e8:29:25:38:cd:bb:55:8e:4a:6a:
        6f:e5:7d:fc:d7:55:d6:ae:38:07:96:c1:97:ff:e5:2b:4f:99:
        2d:70:f2:08
-----BEGIN CERTIFICATE-----
MIIDYjCCAkqgAwIBAgIBCjANBgkqhkiG9w0BAQsFADBdMQ4wDAYDVQQKEwVJQ0FO
TjEmMCQGA1UECxMdSUNBTk4gQ2VydGlmaWNhdGlvbiBBdXRob3JpdHkxFjAUBgNV
BAMTDUlDQU5OIFJvb3QgQ0ExCzAJBgNVBAYTAlVTMB4XDTE2MTEwODIzMzgxNloX
DTI2MTEwNjIzMzgxNlowJzEOMAwGA1UEChMFSUNBTk4xFTATBgNVBAMTDElDQU5O
IFNTTCBDQTCCASIwDQYJKoZIhvcNAQEBBQADggEPADCCAQoCggEBAN3Gq798Zp2z
K5YAFMdgeo1iWyZLMNezTIJpxk1Nc/PUkSFdqzXwyAQO9KM14uEYqZgSA1j4n+t3
VFuJgSbJqsL0yQyCVypeBelhF8wZGHHrNYPBhp3s8WvK3aGWC5XU4Q+eJG/cPNAo
nvJTRyuhrTIDyD8NgIB98ALSblosRCGbCVAVP6E908nIJOfqTpIvlJAu3udo9saz
kB+8yXuiZdcR6YvwOlq3FwffaeNuuVRqjjqqlH8sCqGturfZYGInp3FAO46whHu4
yGfvZro9rMOF5Ya7p5z9tuHAEFM91H4bCeafIlynJwl+JxIz+t+bIC8U9xfA5B4H
kR/5ms2o4sUCAwEAAaNjMGEwDwYDVR0TAQH/BAUwAwEB/zAOBgNVHQ8BAf8EBAMC
AQYwHwYDVR0jBBgwFoAUulLpSYMkhlIvx5nN/I1raQhNwFAwHQYDVR0OBBYEFG53
qEAQSticDPK3WjqlL3lKYRTYMA0GCSqGSIb3DQEBCwUAA4IBAQBHRk/HX0bj0dz8
K/j8Zc42sfRf7hR1o9lf3nVL+nuInxCMLpfMNRvOJNM2YJXVrhG2P4v0EmmFtTsq
tqt6gYXCVVft0LXnT1Q3USTJ1Qc677bFGj4UKaem+AgqCyZ5+WKFSuXqkMpxOBaR
Tn7947PzVY9a0IbPM5SI8ZCZy4HigZJoL8Nh1VKN5ppbAINCJ4j22frRvLuwvLUU
C04aVO/61p3EDPztFashS0W12TvtPNUeLnqDbyRF1Ey072BDGNCEXRZ79VCAsanC
jzvIkAj9qhcTGTgZ0Y6FfB5XFoz5iugpJTjNu1WOSmpv5X3811XWrjgHlsGX/+Ur
T5ktcPII
-----END CERTIFICATE-----
